; Function Attrs: mustprogress nofree norecurse nosync nounwind willreturn memory(argmem: read) uwtable
define dso_local { i64, i8 } @_ZNK4llvm14DWARFFormValue23getAsDebugInfoReferenceEv(ptr nocapture noundef nonnull readonly align 8 dereferenceable(48) %0) local_unnamed_addr #7 align 2 {
  %2 = load i16, ptr %0, align 8
  %3 = icmp eq i16 %2, 16
  %4 = getelementptr inbounds nuw i8, ptr %0, i64 8
  %5 = load i64, ptr %4, align 8
  %.sroa.2.0 = zext i1 %3 to i8
  %.sroa.0.0 = select i1 %3, i64 %5, i64 undef
  %.fca.0.insert = insertvalue { i64, i8 } poison, i64 %.sroa.0.0, 0
  %.fca.1.insert = insertvalue { i64, i8 } %.fca.0.insert, i8 %.sroa.2.0, 1
  ret { i64, i8 } %.fca.1.insert
}